target datalayout = "e-m:e-p270:32:32-p271:32:32-p272:64:64-i64:64-i128:128-f80:128-n8:16:32:64-S128"
target triple = "x86_64-pc-linux-gnu"

%class.anon.207 = type { ptr }
%"struct.__gnu_cxx::__ops::_Iter_comp_iter.212" = type { %class.anon.207 }

; Function Attrs: mustprogress uwtable
define internal void @"_ZSt21__inplace_stable_sortIPmN9__gnu_cxx5__ops15_Iter_comp_iterIZN7xgboost6common8QuantileINS5_18IndexTransformIterIZZZNS4_3obj6detail18UpdateTreeLeafHostEPKNS4_7ContextERKSt6vectorIiSaIiEEiRKNS4_8MetaInfoEfRKNS4_16HostDeviceVectorIfEEfPNS4_7RegTreeEENK3$_1clEvENKUlmE_clEmEUlmE_EEfEET0_SC_dRKT_SY_EUlmmE_EEEvSW_SW_SV_"(ptr noundef %0, ptr noundef %1, ptr %2) #4 {
  %4 = alloca %"struct.__gnu_cxx::__ops::_Iter_comp_iter.212", align 8
  %5 = alloca ptr, align 8
  %6 = alloca ptr, align 8
  %7 = alloca %"struct.__gnu_cxx::__ops::_Iter_comp_iter.212", align 8
  %8 = alloca ptr, align 8
  %9 = alloca %"struct.__gnu_cxx::__ops::_Iter_comp_iter.212", align 8
  %10 = alloca %"struct.__gnu_cxx::__ops::_Iter_comp_iter.212", align 8
  %11 = alloca %"struct.__gnu_cxx::__ops::_Iter_comp_iter.212", align 8
  %12 = getelementptr inbounds nuw %"struct.__gnu_cxx::__ops::_Iter_comp_iter.212", ptr %4, i32 0, i32 0
  %13 = getelementptr inbounds nuw %class.anon.207, ptr %12, i32 0, i32 0
  store ptr %2, ptr %13, align 8
  store ptr %0, ptr %5, align 8, !tbaa !38
  store ptr %1, ptr %6, align 8, !tbaa !38
  %14 = load ptr, ptr %6, align 8, !tbaa !38
  %15 = load ptr, ptr %5, align 8, !tbaa !38
  %16 = ptrtoint ptr %14 to i64
  %17 = ptrtoint ptr %15 to i64
  %18 = sub i64 %16, %17
  %19 = sdiv exact i64 %18, 8
  %20 = icmp slt i64 %19, 15
  br i1 %20, label %21, label %27

21:                                               ; preds = %3
  %22 = load ptr, ptr %5, align 8, !tbaa !38
  %23 = load ptr, ptr %6, align 8, !tbaa !38
  call void @llvm.memcpy.p0.p0.i64(ptr align 8 %7, ptr align 8 %4, i64 8, i1 false), !tbaa.struct !1057
  %24 = getelementptr inbounds nuw %"struct.__gnu_cxx::__ops::_Iter_comp_iter.212", ptr %7, i32 0, i32 0
  %25 = getelementptr inbounds nuw %class.anon.207, ptr %24, i32 0, i32 0
  %26 = load ptr, ptr %25, align 8
  call void @"_ZSt16__insertion_sortIPmN9__gnu_cxx5__ops15_Iter_comp_iterIZN7xgboost6common8QuantileINS5_18IndexTransformIterIZZZNS4_3obj6detail18UpdateTreeLeafHostEPKNS4_7ContextERKSt6vectorIiSaIiEEiRKNS4_8MetaInfoEfRKNS4_16HostDeviceVectorIfEEfPNS4_7RegTreeEENK3$_1clEvENKUlmE_clEmEUlmE_EEfEET0_SC_dRKT_SY_EUlmmE_EEEvSW_SW_SV_"(ptr noundef %22, ptr noundef %23, ptr %26)
  br label %65

27:                                               ; preds = %3
  call void @llvm.lifetime.start.p0(i64 8, ptr %8) #3
  %28 = load ptr, ptr %5, align 8, !tbaa !38
  %29 = load ptr, ptr %6, align 8, !tbaa !38
  %30 = load ptr, ptr %5, align 8, !tbaa !38
  %31 = ptrtoint ptr %29 to i64
  %32 = ptrtoint ptr %30 to i64
  %33 = sub i64 %31, %32
  %34 = sdiv exact i64 %33, 8
  %35 = sdiv i64 %34, 2
  %36 = getelementptr inbounds i64, ptr %28, i64 %35
  store ptr %36, ptr %8, align 8, !tbaa !38
  %37 = load ptr, ptr %5, align 8, !tbaa !38
  %38 = load ptr, ptr %8, align 8, !tbaa !38
  call void @llvm.memcpy.p0.p0.i64(ptr align 8 %9, ptr align 8 %4, i64 8, i1 false), !tbaa.struct !1057
  %39 = getelementptr inbounds nuw %"struct.__gnu_cxx::__ops::_Iter_comp_iter.212", ptr %9, i32 0, i32 0
  %40 = getelementptr inbounds nuw %class.anon.207, ptr %39, i32 0, i32 0
  %41 = load ptr, ptr %40, align 8
  call void @"_ZSt21__inplace_stable_sortIPmN9__gnu_cxx5__ops15_Iter_comp_iterIZN7xgboost6common8QuantileINS5_18IndexTransformIterIZZZNS4_3obj6detail18UpdateTreeLeafHostEPKNS4_7ContextERKSt6vectorIiSaIiEEiRKNS4_8MetaInfoEfRKNS4_16HostDeviceVectorIfEEfPNS4_7RegTreeEENK3$_1clEvENKUlmE_clEmEUlmE_EEfEET0_SC_dRKT_SY_EUlmmE_EEEvSW_SW_SV_"(ptr noundef %37, ptr noundef %38, ptr %41)
  %42 = load ptr, ptr %8, align 8, !tbaa !38
  %43 = load ptr, ptr %6, align 8, !tbaa !38
  call void @llvm.memcpy.p0.p0.i64(ptr align 8 %10, ptr align 8 %4, i64 8, i1 false), !tbaa.struct !1057
  %44 = getelementptr inbounds nuw %"struct.__gnu_cxx::__ops::_Iter_comp_iter.212", ptr %10, i32 0, i32 0
  %45 = getelementptr inbounds nuw %class.anon.207, ptr %44, i32 0, i32 0
  %46 = load ptr, ptr %45, align 8
  call void @"_ZSt21__inplace_stable_sortIPmN9__gnu_cxx5__ops15_Iter_comp_iterIZN7xgboost6common8QuantileINS5_18IndexTransformIterIZZZNS4_3obj6detail18UpdateTreeLeafHostEPKNS4_7ContextERKSt6vectorIiSaIiEEiRKNS4_8MetaInfoEfRKNS4_16HostDeviceVectorIfEEfPNS4_7RegTreeEENK3$_1clEvENKUlmE_clEmEUlmE_EEfEET0_SC_dRKT_SY_EUlmmE_EEEvSW_SW_SV_"(ptr noundef %42, ptr noundef %43, ptr %46)
  %47 = load ptr, ptr %5, align 8, !tbaa !38
  %48 = load ptr, ptr %8, align 8, !tbaa !38
  %49 = load ptr, ptr %6, align 8, !tbaa !38
  %50 = load ptr, ptr %8, align 8, !tbaa !38
  %51 = load ptr, ptr %5, align 8, !tbaa !38
  %52 = ptrtoint ptr %50 to i64
  %53 = ptrtoint ptr %51 to i64
  %54 = sub i64 %52, %53
  %55 = sdiv exact i64 %54, 8
  %56 = load ptr, ptr %6, align 8, !tbaa !38
  %57 = load ptr, ptr %8, align 8, !tbaa !38
  %58 = ptrtoint ptr %56 to i64
  %59 = ptrtoint ptr %57 to i64
  %60 = sub i64 %58, %59
  %61 = sdiv exact i64 %60, 8
  call void @llvm.memcpy.p0.p0.i64(ptr align 8 %11, ptr align 8 %4, i64 8, i1 false), !tbaa.struct !1057
  %62 = getelementptr inbounds nuw %"struct.__gnu_cxx::__ops::_Iter_comp_iter.212", ptr %11, i32 0, i32 0
  %63 = getelementptr inbounds nuw %class.anon.207, ptr %62, i32 0, i32 0
  %64 = load ptr, ptr %63, align 8
  call void @"_ZSt22__merge_without_bufferIPmlN9__gnu_cxx5__ops15_Iter_comp_iterIZN7xgboost6common8QuantileINS5_18IndexTransformIterIZZZNS4_3obj6detail18UpdateTreeLeafHostEPKNS4_7ContextERKSt6vectorIiSaIiEEiRKNS4_8MetaInfoEfRKNS4_16HostDeviceVectorIfEEfPNS4_7RegTreeEENK3$_1clEvENKUlmE_clEmEUlmE_EEfEET0_SC_dRKT_SY_EUlmmE_EEEvSW_SW_SW_SV_SV_T1_"(ptr noundef %47, ptr noundef %48, ptr noundef %49, i64 noundef %55, i64 noundef %61, ptr %64)
  call void @llvm.lifetime.end.p0(i64 8, ptr %8) #3
  br label %65

65:                                               ; preds = %27, %21
  ret void
}